Certificate:
    Data:
        Version: 3 (0x2)
        Serial Number: 0 (0x0)
    Signature Algorithm: sha256WithRSAEncryption
        Issuer: C=US, ST=FL, L=Jacksonville, O=CarbonSphere, OU=CarbonSphereOU, CN=CarbonSphere CA/name=CarbonEasyRSA/emailAddress=carbonsphere@gmail.com
        Validity
            Not Before: Nov 28 13:34:12 2015 GMT
            Not After : Jun  1 13:34:12 2016 GMT
        Subject: C=US, ST=FL, L=Jacksonville, O=CarbonSphere, OU=CarbonSphereOU, CN=server/name=CarbonEasyRSA/emailAddress=carbonsphere@gmail.com
        Subject Public Key Info:
            Public Key Algorithm: rsaEncryption
                Public-Key: (2048 bit)
                Modulus:
                    00:94:e9:af:06:4e:5b:c3:00:ef:83:76:16:fd:73:
                    64:b9:79:2b:d1:e1:7b:49:b3:eb:19:f2:86:ae:da:
                    75:07:58:6e:0f:89:dd:24:08:74:c9:77:54:21:43:
                    4e:a5:fe:35:67:99:4b:b2:11:48:54:bb:ba:d3:fb:
                    05:7f:78:44:95:ec:2a:8b:61:3c:85:3f:e1:8d:2c:
                    ff:10:ae:38:a6:9d:d5:0d:5e:3e:c3:49:f1:9d:bd:
                    be:06:54:04:9f:40:34:5e:9e:79:61:af:94:19:2a:
                    fc:c8:4f:17:fd:3f:13:dc:28:83:90:b8:70:97:43:
                    c6:2f:4b:55:55:c2:64:ab:74:3a:b3:7f:08:be:54:
                    af:1c:04:22:79:2e:56:ce:b1:ee:af:09:76:d3:f4:
                    c6:e1:11:f1:35:a4:64:c7:6f:6f:00:d2:ac:20:d0:
                    2c:d1:e4:70:23:9c:5b:fa:d8:b5:24:bb:63:09:17:
                    cb:46:d3:52:88:39:d8:82:7a:78:8a:a3:67:4f:f9:
                    5f:c4:1a:6f:ce:b9:5b:e6:46:09:7a:98:78:0e:5a:
                    98:ed:51:7c:ff:0c:f0:46:df:bd:67:a7:fd:f9:90:
                    ed:b6:50:48:6c:68:c5:90:7f:5a:5a:35:64:85:b8:
                    5c:1d:0f:9d:c5:ab:68:4b:de:b6:01:59:38:79:1f:
                    d0:ed
                Exponent: 65537 (0x10001)
        X509v3 extensions:
            X509v3 Basic Constraints: 
                CA:FALSE
            Netscape Cert Type: 
                SSL Server
            Netscape Comment: 
                Easy-RSA Generated Server Certificate
            X509v3 Subject Key Identifier: 
                83:2C:18:E5:42:38:E2:77:A7:84:6A:B0:F7:F7:E3:EE:3E:B4:BE:94
            X509v3 Authority Key Identifier: 
                keyid:AE:9B:8E:05:95:16:2B:7E:99:76:31:5E:4B:06:9E:DD:E8:C5:55:E2
                DirName:/C=US/ST=FL/L=Jacksonville/O=CarbonSphere/OU=CarbonSphereOU/CN=CarbonSphere CA/name=CarbonEasyRSA/emailAddress=carbonsphere@gmail.com
                serial:8F:7C:AE:76:14:A1:FA:4B

            X509v3 Extended Key Usage: 
                TLS Web Server Authentication
            X509v3 Key Usage: 
                Digital Signature, Key Encipherment
    Signature Algorithm: sha256WithRSAEncryption
         21:f5:e2:76:4c:21:a2:77:6f:05:05:2b:6f:a1:6e:ed:be:e6:
         5d:59:cf:1e:18:c8:99:8c:16:b9:4e:da:6e:07:8b:25:b9:b7:
         03:b5:ac:96:7b:85:f0:bb:65:a7:f9:3c:1d:99:87:24:f1:86:
         7c:28:47:73:b8:c9:80:64:4a:1a:f1:6f:18:14:e0:2f:9c:93:
         6d:c7:9c:bc:20:a9:99:70:54:f9:07:0c:b3:1b:c4:91:8f:34:
         d9:b5:46:2a:9d:4c:18:4c:a0:50:08:72:0e:c8:23:86:dd:6a:
         6a:31:b0:72:62:1b:0a:d1:b2:7f:35:5c:0b:03:36:92:73:e4:
         f5:ad:fa:67:4e:10:be:59:ee:0f:e0:55:f6:21:d6:30:12:cf:
         ab:17:d0:96:54:b9:20:c9:55:a7:8a:95:67:b5:a6:3c:41:5e:
         43:a1:0e:fa:ac:45:fb:1d:5f:19:be:c6:9c:38:72:5d:e1:1b:
         76:d7:83:8d:65:21:8d:17:b6:99:ae:f8:37:40:b6:d0:c8:54:
         42:f4:e1:8e:c1:0d:f2:76:64:81:15:81:36:97:45:41:a9:13:
         21:8b:5e:64:0e:95:b6:12:df:91:22:5d:c7:b9:37:6c:ee:a3:
         2b:87:22:05:7a:91:57:69:33:96:20:9e:c9:3c:24:51:43:81:
         6f:77:5b:f1
-----BEGIN CERTIFICATE-----
MIIFdTCCBF2gAwIBAgIBADANBgkqhkiG9w0BAQsFADCBujELMAkGA1UEBhMCVVMx
CzAJBgNVBAgTAkZMMRUwEwYDVQQHEwxKYWNrc29udmlsbGUxFTATBgNVBAoTDENh
cmJvblNwaGVyZTEXMBUGA1UECxMOQ2FyYm9uU3BoZXJlT1UxGDAWBgNVBAMTD0Nh
cmJvblNwaGVyZSBDQTEWMBQGA1UEKRMNQ2FyYm9uRWFzeVJTQTElMCMGCSqGSIb3
DQEJARYWY2FyYm9uc3BoZXJlQGdtYWlsLmNvbTAeFw0xNTExMjgxMzM0MTJaFw0x
NjA2MDExMzM0MTJaMIGxMQswCQYDVQQGEwJVUzELMAkGA1UECBMCRkwxFTATBgNV
BAcTDEphY2tzb252aWxsZTEVMBMGA1UEChMMQ2FyYm9uU3BoZXJlMRcwFQYDVQQL
Ew5DYXJib25TcGhlcmVPVTEPMA0GA1UEAxMGc2VydmVyMRYwFAYDVQQpEw1DYXJi
b25FYXN5UlNBMSUwIwYJKoZIhvcNAQkBFhZjYXJib25zcGhlcmVAZ21haWwuY29t
MIIBIjANBgkqhkiG9w0BAQEFAAOCAQ8AMIIBCgKCAQEAlOmvBk5bwwDvg3YW/XNk
uXkr0eF7SbPrGfKGrtp1B1huD4ndJAh0yXdUIUNOpf41Z5lLshFIVLu60/sFf3hE
lewqi2E8hT/hjSz/EK44pp3VDV4+w0nxnb2+BlQEn0A0Xp55Ya+UGSr8yE8X/T8T
3CiDkLhwl0PGL0tVVcJkq3Q6s38IvlSvHAQieS5WzrHurwl20/TG4RHxNaRkx29v
ANKsINAs0eRwI5xb+ti1JLtjCRfLRtNSiDnYgnp4iqNnT/lfxBpvzrlb5kYJeph4
DlqY7VF8/wzwRt+9Z6f9+ZDttlBIbGjFkH9aWjVkhbhcHQ+dxatoS962AVk4eR/Q
7QIDAQABo4IBizCCAYcwCQYDVR0TBAIwADARBglghkgBhvhCAQEEBAMCBkAwNAYJ
YIZIAYb4QgENBCcWJUVhc3ktUlNBIEdlbmVyYXRlZCBTZXJ2ZXIgQ2VydGlmaWNh
dGUwHQYDVR0OBBYEFIMsGOVCOOJ3p4RqsPf34+4+tL6UMIHvBgNVHSMEgecwgeSA
FK6bjgWVFit+mXYxXksGnt3oxVXioYHApIG9MIG6MQswCQYDVQQGEwJVUzELMAkG
A1UECBMCRkwxFTATBgNVBAcTDEphY2tzb252aWxsZTEVMBMGA1UEChMMQ2FyYm9u
U3BoZXJlMRcwFQYDVQQLEw5DYXJib25TcGhlcmVPVTEYMBYGA1UEAxMPQ2FyYm9u
U3BoZXJlIENBMRYwFAYDVQQpEw1DYXJib25FYXN5UlNBMSUwIwYJKoZIhvcNAQkB
FhZjYXJib25zcGhlcmVAZ21haWwuY29tggkAj3yudhSh+kswEwYDVR0lBAwwCgYI
KwYBBQUHAwEwCwYDVR0PBAQDAgWgMA0GCSqGSIb3DQEBCwUAA4IBAQAh9eJ2TCGi
d28FBStvoW7tvuZdWc8eGMiZjBa5TtpuB4slubcDtayWe4Xwu2Wn+TwdmYck8YZ8
KEdzuMmAZEoa8W8YFOAvnJNtx5y8IKmZcFT5BwyzG8SRjzTZtUYqnUwYTKBQCHIO
yCOG3WpqMbByYhsK0bJ/NVwLAzaSc+T1rfpnThC+We4P4FX2IdYwEs+rF9CWVLkg
yVWnipVntaY8QV5DoQ76rEX7HV8ZvsacOHJd4Rt214ONZSGNF7aZrvg3QLbQyFRC
9OGOwQ3ydmSBFYE2l0VBqRMhi15kDpW2Et+RIl3HuTds7qMrhyIFepFXaTOWIJ7J
PCRRQ4Fvd1vx
-----END CERTIFICATE-----
