Certificate:
    Data:
        Version: 3 (0x2)
        Serial Number: 0 (0x0)
    Signature Algorithm: sha256WithRSAEncryption
        Issuer: C=US, ST=FL, L=Jacksonville, O=CarbonSphere, OU=CarbonSphereOU, CN=CarbonSphere CA/name=CarbonEasyRSA/emailAddress=carbonsphere@gmail.com
        Validity
            Not Before: Nov 25 21:38:50 2015 GMT
            Not After : May 29 21:38:50 2016 GMT
        Subject: C=US, ST=FL, L=Jacksonville, O=CarbonSphere, OU=CarbonSphereOU, CN=ca-server/name=CarbonEasyRSA/emailAddress=carbonsphere@gmail.com
        Subject Public Key Info:
            Public Key Algorithm: rsaEncryption
                Public-Key: (2048 bit)
                Modulus:
                    00:b7:f1:fd:f6:00:5c:aa:e8:99:ff:fd:8d:c0:fe:
                    4d:e1:db:18:c3:a9:40:1b:64:ca:7f:f1:25:81:cb:
                    5c:55:a1:9a:23:f3:48:91:45:8a:f6:57:c1:0a:8a:
                    6d:8a:fb:3c:f2:b5:b9:0f:f6:7e:2a:0f:01:cf:ed:
                    7a:8c:d7:89:26:51:06:0a:d8:c6:00:17:65:0e:2a:
                    e9:0e:b9:80:aa:65:10:eb:09:85:fa:0d:31:a6:18:
                    b1:57:46:bf:1e:6d:3a:6d:82:61:3d:fd:eb:14:c5:
                    70:4e:c5:5c:0f:6b:df:5c:1e:c6:38:bb:70:48:30:
                    46:46:ce:f1:1c:bb:bc:d0:6b:a2:4d:69:d6:3d:c9:
                    fa:91:3e:76:63:68:40:31:cd:be:89:3c:6e:e6:aa:
                    95:47:73:47:df:af:40:79:d5:95:11:93:90:a7:90:
                    eb:5b:22:05:5e:4f:25:24:cd:15:ba:39:7a:ef:8b:
                    25:cc:da:52:48:3a:fa:89:69:9f:eb:80:a1:22:ec:
                    cc:b9:ff:28:ab:78:ac:dc:86:68:98:4b:dc:e8:e7:
                    60:5c:df:fb:ff:c8:b3:40:7a:7b:2b:d6:c6:b9:b6:
                    99:48:4f:ab:9c:61:28:e1:99:8b:8a:9f:e4:d0:db:
                    1e:c5:ad:dd:a6:fd:41:d6:a0:fd:c6:8f:72:b5:61:
                    69:f9
                Exponent: 65537 (0x10001)
        X509v3 extensions:
            X509v3 Basic Constraints: 
                CA:FALSE
            Netscape Cert Type: 
                SSL Server
            Netscape Comment: 
                Easy-RSA Generated Server Certificate
            X509v3 Subject Key Identifier: 
                78:7A:4C:2B:7B:04:96:74:15:89:15:38:8F:B1:50:1B:8C:69:76:0A
            X509v3 Authority Key Identifier: 
                keyid:DB:41:F2:D6:4E:16:AE:5D:E7:20:57:94:BC:AC:E4:37:EA:12:0B:E9
                DirName:/C=US/ST=FL/L=Jacksonville/O=CarbonSphere/OU=CarbonSphereOU/CN=CarbonSphere CA/name=CarbonEasyRSA/emailAddress=carbonsphere@gmail.com
                serial:F0:86:98:82:1E:5B:A7:92

            X509v3 Extended Key Usage: 
                TLS Web Server Authentication
            X509v3 Key Usage: 
                Digital Signature, Key Encipherment
    Signature Algorithm: sha256WithRSAEncryption
         2e:18:8f:d9:e1:4c:03:f4:4b:b7:84:02:1f:14:7a:5b:5e:c3:
         c9:3f:50:1d:00:53:e8:bb:6f:7d:b1:f2:a3:5a:1c:75:cb:b4:
         17:f1:e7:cd:d6:05:dd:27:74:49:64:27:60:a8:0b:1d:b4:0f:
         b1:de:98:70:ba:bd:9f:37:de:5e:31:3f:d4:58:a5:4a:cc:e0:
         19:0b:c6:2a:d6:db:0d:82:17:82:de:be:20:d1:06:8e:11:27:
         0d:4d:a0:97:9c:e3:a9:21:a5:ca:51:22:fb:bf:bf:1b:59:5b:
         58:b9:af:47:08:8a:37:d5:9e:f6:6e:e2:dc:e3:84:30:ee:30:
         d3:96:28:62:75:4c:0f:35:cc:2d:f5:8a:87:6c:d1:b2:83:fe:
         f0:cb:93:fe:86:59:2f:31:7c:69:d3:c1:71:98:0f:a8:ba:b7:
         7c:b5:58:79:d0:62:ed:1b:4a:8d:f2:a6:82:77:fd:b6:44:d6:
         36:b9:d3:75:58:15:ed:14:d5:66:e5:c2:f1:a2:bf:c2:c5:c1:
         8d:fa:4c:7f:c5:67:e2:60:16:8b:ad:10:5a:74:10:66:58:3c:
         29:26:a8:72:db:c8:5d:ed:e7:07:42:c7:6b:66:a3:b5:a8:47:
         e4:f4:7d:b1:5e:d2:48:73:fe:96:a7:b2:0e:0f:96:3d:6e:e3:
         35:c7:1f:09
-----BEGIN CERTIFICATE-----
MIIFeDCCBGCgAwIBAgIBADANBgkqhkiG9w0BAQsFADCBujELMAkGA1UEBhMCVVMx
CzAJBgNVBAgTAkZMMRUwEwYDVQQHEwxKYWNrc29udmlsbGUxFTATBgNVBAoTDENh
cmJvblNwaGVyZTEXMBUGA1UECxMOQ2FyYm9uU3BoZXJlT1UxGDAWBgNVBAMTD0Nh
cmJvblNwaGVyZSBDQTEWMBQGA1UEKRMNQ2FyYm9uRWFzeVJTQTElMCMGCSqGSIb3
DQEJARYWY2FyYm9uc3BoZXJlQGdtYWlsLmNvbTAeFw0xNTExMjUyMTM4NTBaFw0x
NjA1MjkyMTM4NTBaMIG0MQswCQYDVQQGEwJVUzELMAkGA1UECBMCRkwxFTATBgNV
BAcTDEphY2tzb252aWxsZTEVMBMGA1UEChMMQ2FyYm9uU3BoZXJlMRcwFQYDVQQL
Ew5DYXJib25TcGhlcmVPVTESMBAGA1UEAxMJY2Etc2VydmVyMRYwFAYDVQQpEw1D
YXJib25FYXN5UlNBMSUwIwYJKoZIhvcNAQkBFhZjYXJib25zcGhlcmVAZ21haWwu
Y29tMIIBIjANBgkqhkiG9w0BAQEFAAOCAQ8AMIIBCgKCAQEAt/H99gBcquiZ//2N
wP5N4dsYw6lAG2TKf/ElgctcVaGaI/NIkUWK9lfBCoptivs88rW5D/Z+Kg8Bz+16
jNeJJlEGCtjGABdlDirpDrmAqmUQ6wmF+g0xphixV0a/Hm06bYJhPf3rFMVwTsVc
D2vfXB7GOLtwSDBGRs7xHLu80GuiTWnWPcn6kT52Y2hAMc2+iTxu5qqVR3NH369A
edWVEZOQp5DrWyIFXk8lJM0Vujl674slzNpSSDr6iWmf64ChIuzMuf8oq3is3IZo
mEvc6OdgXN/7/8izQHp7K9bGubaZSE+rnGEo4ZmLip/k0Nsexa3dpv1B1qD9xo9y
tWFp+QIDAQABo4IBizCCAYcwCQYDVR0TBAIwADARBglghkgBhvhCAQEEBAMCBkAw
NAYJYIZIAYb4QgENBCcWJUVhc3ktUlNBIEdlbmVyYXRlZCBTZXJ2ZXIgQ2VydGlm
aWNhdGUwHQYDVR0OBBYEFHh6TCt7BJZ0FYkVOI+xUBuMaXYKMIHvBgNVHSMEgecw
geSAFNtB8tZOFq5d5yBXlLys5DfqEgvpoYHApIG9MIG6MQswCQYDVQQGEwJVUzEL
MAkGA1UECBMCRkwxFTATBgNVBAcTDEphY2tzb252aWxsZTEVMBMGA1UEChMMQ2Fy
Ym9uU3BoZXJlMRcwFQYDVQQLEw5DYXJib25TcGhlcmVPVTEYMBYGA1UEAxMPQ2Fy
Ym9uU3BoZXJlIENBMRYwFAYDVQQpEw1DYXJib25FYXN5UlNBMSUwIwYJKoZIhvcN
AQkBFhZjYXJib25zcGhlcmVAZ21haWwuY29tggkA8IaYgh5bp5IwEwYDVR0lBAww
CgYIKwYBBQUHAwEwCwYDVR0PBAQDAgWgMA0GCSqGSIb3DQEBCwUAA4IBAQAuGI/Z
4UwD9Eu3hAIfFHpbXsPJP1AdAFPou299sfKjWhx1y7QX8efN1gXdJ3RJZCdgqAsd
tA+x3phwur2fN95eMT/UWKVKzOAZC8Yq1tsNgheC3r4g0QaOEScNTaCXnOOpIaXK
USL7v78bWVtYua9HCIo31Z72buLc44Qw7jDTlihidUwPNcwt9YqHbNGyg/7wy5P+
hlkvMXxp08FxmA+ourd8tVh50GLtG0qN8qaCd/22RNY2udN1WBXtFNVm5cLxor/C
xcGN+kx/xWfiYBaLrRBadBBmWDwpJqhy28hd7ecHQsdrZqO1qEfk9H2xXtJIc/6W
p7IOD5Y9buM1xx8J
-----END CERTIFICATE-----
